target datalayout = "e-m:e-p270:32:32-p271:32:32-p272:64:64-i64:64-i128:128-f80:128-n8:16:32:64-S128"
target triple = "x86_64-pc-linux-gnu"

%"struct.OpenImageIO::v3_1_0::TypeDesc" = type { i8, i8, i8, i8, i32 }
%"class.OpenImageIO::v3_1_0::DPXOutput" = type { %"class.OpenImageIO::v3_1_0::ImageOutput", ptr, %"class.dpx::Writer", %"class.std::vector.12", %"class.std::vector.12", i32, i32, i32, i32, i32, i32, i8, i8, i64, i32, i32, %"class.std::vector.17", i8, i32, %"class.std::vector.12" }
%"class.OpenImageIO::v3_1_0::ImageOutput" = type { ptr, %"class.OpenImageIO::v3_1_0::ImageSpec", %"class.std::unique_ptr" }
%"class.OpenImageIO::v3_1_0::ImageSpec" = type { i32, i32, i32, i32, i32, i32, i32, i32, i32, i32, i32, i32, i32, i32, i32, i32, %"struct.OpenImageIO::v3_1_0::TypeDesc", %"class.std::vector", %"class.std::vector.0", i32, i32, i8, %"class.OpenImageIO::v3_1_0::ParamValueList" }
%"class.std::vector" = type { %"struct.std::_Vector_base" }
%"struct.std::_Vector_base" = type { %"struct.std::_Vector_base<OpenImageIO::v3_1_0::TypeDesc, std::allocator<OpenImageIO::v3_1_0::TypeDesc>>::_Vector_impl" }
%"struct.std::_Vector_base<OpenImageIO::v3_1_0::TypeDesc, std::allocator<OpenImageIO::v3_1_0::TypeDesc>>::_Vector_impl" = type { %"struct.std::_Vector_base<OpenImageIO::v3_1_0::TypeDesc, std::allocator<OpenImageIO::v3_1_0::TypeDesc>>::_Vector_impl_data" }
%"struct.std::_Vector_base<OpenImageIO::v3_1_0::TypeDesc, std::allocator<OpenImageIO::v3_1_0::TypeDesc>>::_Vector_impl_data" = type { ptr, ptr, ptr }
%"class.std::vector.0" = type { %"struct.std::_Vector_base.1" }
%"struct.std::_Vector_base.1" = type { %"struct.std::_Vector_base<std::__cxx11::basic_string<char>, std::allocator<std::__cxx11::basic_string<char>>>::_Vector_impl" }
%"struct.std::_Vector_base<std::__cxx11::basic_string<char>, std::allocator<std::__cxx11::basic_string<char>>>::_Vector_impl" = type { %"struct.std::_Vector_base<std::__cxx11::basic_string<char>, std::allocator<std::__cxx11::basic_string<char>>>::_Vector_impl_data" }
%"struct.std::_Vector_base<std::__cxx11::basic_string<char>, std::allocator<std::__cxx11::basic_string<char>>>::_Vector_impl_data" = type { ptr, ptr, ptr }
%"class.OpenImageIO::v3_1_0::ParamValueList" = type { %"class.std::vector.5" }
%"class.std::vector.5" = type { %"struct.std::_Vector_base.6" }
%"struct.std::_Vector_base.6" = type { %"struct.std::_Vector_base<OpenImageIO::v3_1_0::ParamValue, std::allocator<OpenImageIO::v3_1_0::ParamValue>>::_Vector_impl" }
%"struct.std::_Vector_base<OpenImageIO::v3_1_0::ParamValue, std::allocator<OpenImageIO::v3_1_0::ParamValue>>::_Vector_impl" = type { %"struct.std::_Vector_base<OpenImageIO::v3_1_0::ParamValue, std::allocator<OpenImageIO::v3_1_0::ParamValue>>::_Vector_impl_data" }
%"struct.std::_Vector_base<OpenImageIO::v3_1_0::ParamValue, std::allocator<OpenImageIO::v3_1_0::ParamValue>>::_Vector_impl_data" = type { ptr, ptr, ptr }
%"class.std::unique_ptr" = type { %"struct.std::__uniq_ptr_data" }
%"struct.std::__uniq_ptr_data" = type { %"class.std::__uniq_ptr_impl" }
%"class.std::__uniq_ptr_impl" = type { %"class.std::tuple" }
%"class.std::tuple" = type { %"struct.std::_Tuple_impl" }
%"struct.std::_Tuple_impl" = type { %"struct.std::_Tuple_impl.10", %"struct.std::_Head_base.11" }
%"struct.std::_Tuple_impl.10" = type { %"struct.std::_Head_base" }
%"struct.std::_Head_base" = type { ptr }
%"struct.std::_Head_base.11" = type { ptr }
%"class.dpx::Writer" = type { ptr, %"struct.dpx::Header", i64, ptr }
%"struct.dpx::Header" = type <{ %"struct.dpx::GenericHeader", %"struct.dpx::IndustryHeader", i8, [3 x i8] }>
%"struct.dpx::GenericHeader" = type { i32, i32, [8 x i8], i32, i32, i32, i32, i32, [100 x i8], [24 x i8], [100 x i8], [200 x i8], [200 x i8], i32, [104 x i8], i16, i16, i32, i32, [8 x %"struct.dpx::ImageElement"], [52 x i8], i32, i32, float, float, i32, i32, [100 x i8], [24 x i8], [32 x i8], [32 x i8], [4 x i16], [2 x i32], float, float, [20 x i8] }
%"struct.dpx::ImageElement" = type { i32, i32, float, i32, float, i8, i8, i8, i8, i16, i16, i32, i32, i32, [32 x i8] }
%"struct.dpx::IndustryHeader" = type { [2 x i8], [2 x i8], [2 x i8], [6 x i8], [4 x i8], [32 x i8], i32, i32, i32, float, float, [32 x i8], [100 x i8], [56 x i8], i32, i32, i8, i8, i8, i8, float, float, float, float, float, float, float, float, float, float, [76 x i8] }
%"class.std::vector.17" = type { %"struct.std::_Vector_base.18" }
%"struct.std::_Vector_base.18" = type { %"struct.std::_Vector_base<OpenImageIO::v3_1_0::ImageSpec, std::allocator<OpenImageIO::v3_1_0::ImageSpec>>::_Vector_impl" }
%"struct.std::_Vector_base<OpenImageIO::v3_1_0::ImageSpec, std::allocator<OpenImageIO::v3_1_0::ImageSpec>>::_Vector_impl" = type { %"struct.std::_Vector_base<OpenImageIO::v3_1_0::ImageSpec, std::allocator<OpenImageIO::v3_1_0::ImageSpec>>::_Vector_impl_data" }
%"struct.std::_Vector_base<OpenImageIO::v3_1_0::ImageSpec, std::allocator<OpenImageIO::v3_1_0::ImageSpec>>::_Vector_impl_data" = type { ptr, ptr, ptr }
%"class.std::vector.12" = type { %"struct.std::_Vector_base.13" }
%"struct.std::_Vector_base.13" = type { %"struct.std::_Vector_base<unsigned char, std::allocator<unsigned char>>::_Vector_impl" }
%"struct.std::_Vector_base<unsigned char, std::allocator<unsigned char>>::_Vector_impl" = type { %"struct.std::_Vector_base<unsigned char, std::allocator<unsigned char>>::_Vector_impl_data" }
%"struct.std::_Vector_base<unsigned char, std::allocator<unsigned char>>::_Vector_impl_data" = type { ptr, ptr, ptr }

@.str.76 = private unnamed_addr constant [22 x i8] c"DPX write failed ({})\00", align 1
@.str.77 = private unnamed_addr constant [14 x i8] c"unknown error\00", align 1

; Function Attrs: mustprogress nounwind uwtable
define linkonce_odr noundef ptr @_ZNKSt6vectorIhSaIhEE11_M_data_ptrIhEEPT_S4_(ptr noundef nonnull align 8 dereferenceable(24) %0, ptr noundef %1) #7 comdat align 2 {
  %3 = alloca ptr, align 8
  %4 = alloca ptr, align 8
  store ptr %0, ptr %3, align 8, !tbaa !66
  store ptr %1, ptr %4, align 8, !tbaa !90
  %5 = load ptr, ptr %4, align 8, !tbaa !90
  ret ptr %5
}

; Function Attrs: mustprogress nounwind uwtable
define linkonce_odr noundef ptr @_ZNSt6vectorIhSaIhEE4dataEv(ptr noundef nonnull align 8 dereferenceable(24) %0) #7 comdat align 2 {
  %2 = alloca ptr, align 8
  store ptr %0, ptr %2, align 8, !tbaa !66
  %3 = load ptr, ptr %2, align 8
  %4 = getelementptr inbounds nuw %"struct.std::_Vector_base.13", ptr %3, i32 0, i32 0
  %5 = getelementptr inbounds nuw %"struct.std::_Vector_base<unsigned char, std::allocator<unsigned char>>::_Vector_impl_data", ptr %4, i32 0, i32 0
  %6 = load ptr, ptr %5, align 8, !tbaa !73
  %7 = call noundef ptr @_ZNKSt6vectorIhSaIhEE11_M_data_ptrIhEEPT_S4_(ptr noundef nonnull align 8 dereferenceable(24) %3, ptr noundef %6) #5
  ret ptr %7
}

; Function Attrs: mustprogress nounwind uwtable
define linkonce_odr noundef i64 @_ZNKSt6vectorIhSaIhEE4sizeEv(ptr noundef nonnull align 8 dereferenceable(24) %0) #7 comdat align 2 {
  %2 = alloca ptr, align 8
  store ptr %0, ptr %2, align 8, !tbaa !66
  %3 = load ptr, ptr %2, align 8
  %4 = getelementptr inbounds nuw %"struct.std::_Vector_base.13", ptr %3, i32 0, i32 0
  %5 = getelementptr inbounds nuw %"struct.std::_Vector_base<unsigned char, std::allocator<unsigned char>>::_Vector_impl_data", ptr %4, i32 0, i32 1
  %6 = load ptr, ptr %5, align 8, !tbaa !74
  %7 = getelementptr inbounds nuw %"struct.std::_Vector_base.13", ptr %3, i32 0, i32 0
  %8 = getelementptr inbounds nuw %"struct.std::_Vector_base<unsigned char, std::allocator<unsigned char>>::_Vector_impl_data", ptr %7, i32 0, i32 0
  %9 = load ptr, ptr %8, align 8, !tbaa !73
  %10 = ptrtoint ptr %6 to i64
  %11 = ptrtoint ptr %9 to i64
  %12 = sub i64 %10, %11
  ret i64 %12
}

; Function Attrs: mustprogress nounwind uwtable
define linkonce_odr hidden noundef zeroext i1 @_ZNK11OpenImageIO6v3_1_09DPXOutput9is_openedEv(ptr noundef nonnull align 8 dereferenceable(2424) %0) #7 comdat align 2 {
  %2 = alloca ptr, align 8
  store ptr %0, ptr %2, align 8, !tbaa !8
  %3 = load ptr, ptr %2, align 8
  %4 = getelementptr inbounds nuw %"class.OpenImageIO::v3_1_0::DPXOutput", ptr %3, i32 0, i32 1
  %5 = load ptr, ptr %4, align 8, !tbaa !12
  %6 = icmp ne ptr %5, null
  ret i1 %6
}

; Function Attrs: mustprogress uwtable
define hidden noundef zeroext i1 @_ZN11OpenImageIO6v3_1_09DPXOutput12write_bufferEv(ptr noundef nonnull align 8 dereferenceable(2424) %0) #6 align 2 {
  %2 = alloca i1, align 1
  %3 = alloca ptr, align 8
  %4 = alloca i8, align 1
  %5 = alloca ptr, align 8
  %6 = alloca ptr, align 8
  store ptr %0, ptr %3, align 8, !tbaa !8
  %7 = load ptr, ptr %3, align 8
  %8 = call noundef zeroext i1 @_ZNK11OpenImageIO6v3_1_09DPXOutput9is_openedEv(ptr noundef nonnull align 8 dereferenceable(2424) %7)
  br i1 %8, label %10, label %9

9:                                                ; preds = %1
  store i1 false, ptr %2, align 1
  br label %51

10:                                               ; preds = %1
  call void @llvm.lifetime.start.p0(i64 1, ptr %4) #5
  store i8 1, ptr %4, align 1, !tbaa !77
  %11 = getelementptr inbounds nuw %"class.OpenImageIO::v3_1_0::DPXOutput", ptr %7, i32 0, i32 17
  %12 = load i8, ptr %11, align 8, !tbaa !72, !range !85, !noundef !86
  %13 = trunc i8 %12 to i1
  br i1 %13, label %14, label %48

14:                                               ; preds = %10
  %15 = getelementptr inbounds nuw %"class.OpenImageIO::v3_1_0::DPXOutput", ptr %7, i32 0, i32 3
  %16 = call noundef i64 @_ZNKSt6vectorIhSaIhEE4sizeEv(ptr noundef nonnull align 8 dereferenceable(24) %15) #5
  %17 = icmp ne i64 %16, 0
  br i1 %17, label %18, label %48

18:                                               ; preds = %14
  %19 = getelementptr inbounds nuw %"class.OpenImageIO::v3_1_0::DPXOutput", ptr %7, i32 0, i32 2
  %20 = getelementptr inbounds nuw %"class.OpenImageIO::v3_1_0::DPXOutput", ptr %7, i32 0, i32 14
  %21 = load i32, ptr %20, align 8, !tbaa !70
  %22 = getelementptr inbounds nuw %"class.OpenImageIO::v3_1_0::DPXOutput", ptr %7, i32 0, i32 3
  %23 = call noundef ptr @_ZNSt6vectorIhSaIhEE4dataEv(ptr noundef nonnull align 8 dereferenceable(24) %22) #5
  %24 = getelementptr inbounds nuw %"class.OpenImageIO::v3_1_0::DPXOutput", ptr %7, i32 0, i32 5
  %25 = load i32, ptr %24, align 8, !tbaa !119
  %26 = call noundef zeroext i1 @_ZN3dpx6Writer12WriteElementEiPvNS_8DataSizeE(ptr noundef nonnull align 8 dereferenceable(2080) %19, i32 noundef %21, ptr noundef %23, i32 noundef %25)
  %27 = zext i1 %26 to i8
  store i8 %27, ptr %4, align 1, !tbaa !77
  %28 = load i8, ptr %4, align 1, !tbaa !77, !range !85, !noundef !86
  %29 = trunc i8 %28 to i1
  br i1 %29, label %46, label %30

30:                                               ; preds = %18
  call void @llvm.lifetime.start.p0(i64 8, ptr %5) #5
  %31 = call ptr @__errno_location() #27
  %32 = load i32, ptr %31, align 4, !tbaa !84
  %33 = call ptr @strerror(i32 noundef %32) #5
  store ptr %33, ptr %5, align 8, !tbaa !90
  call void @llvm.lifetime.start.p0(i64 8, ptr %6) #5
  %34 = load ptr, ptr %5, align 8, !tbaa !90
  %35 = icmp ne ptr %34, null
  br i1 %35, label %36, label %43

36:                                               ; preds = %30
  %37 = load ptr, ptr %5, align 8, !tbaa !90
  %38 = getelementptr inbounds i8, ptr %37, i64 0
  %39 = load i8, ptr %38, align 1, !tbaa !83
  %40 = icmp ne i8 %39, 0
  br i1 %40, label %41, label %43

41:                                               ; preds = %36
  %42 = load ptr, ptr %5, align 8, !tbaa !90
  br label %44

43:                                               ; preds = %36, %30
  br label %44

44:                                               ; preds = %43, %41
  %45 = phi ptr [ %42, %41 ], [ @.str.77, %43 ]
  store ptr %45, ptr %6, align 8, !tbaa !90
  call void @_ZNK11OpenImageIO6v3_1_011ImageOutput8errorfmtIJPKcEEEvS4_DpRKT_(ptr noundef nonnull align 8 dereferenceable(184) %7, ptr noundef @.str.76, ptr noundef nonnull align 8 dereferenceable(8) %6)
  call void @llvm.lifetime.end.p0(i64 8, ptr %6) #5
  call void @llvm.lifetime.end.p0(i64 8, ptr %5) #5
  br label %46

46:                                               ; preds = %44, %18
  %47 = getelementptr inbounds nuw %"class.OpenImageIO::v3_1_0::DPXOutput", ptr %7, i32 0, i32 17
  store i8 0, ptr %47, align 8, !tbaa !72
  br label %48

48:                                               ; preds = %46, %14, %10
  %49 = load i8, ptr %4, align 1, !tbaa !77, !range !85, !noundef !86
  %50 = trunc i8 %49 to i1
  store i1 %50, ptr %2, align 1
  call void @llvm.lifetime.end.p0(i64 1, ptr %4) #5
  br label %51

51:                                               ; preds = %48, %9
  %52 = load i1, ptr %2, align 1
  ret i1 %52
}