; Function Attrs: mustprogress uwtable
define hidden noundef zeroext i1 @_ZN11OpenImageIO6v3_1_09DPXOutput12write_bufferEv(ptr noundef nonnull align 8 dereferenceable(2424) %0) local_unnamed_addr #5 align 2 {
  %2 = alloca ptr, align 8
  %3 = getelementptr inbounds nuw i8, ptr %0, i64 184
  %4 = load ptr, ptr %3, align 8, !tbaa !6
  %.not10 = icmp eq ptr %4, null
  br i1 %.not10, label %30, label %5

5:                                                ; preds = %1
  %6 = getelementptr inbounds nuw i8, ptr %0, i64 2392
  %7 = load i8, ptr %6, align 8, !tbaa !68, !range !74, !noundef !75
  %8 = trunc nuw i8 %7 to i1
  br i1 %8, label %9, label %30

9:                                                ; preds = %5
  %10 = getelementptr inbounds nuw i8, ptr %0, i64 2272
  %11 = getelementptr inbounds nuw i8, ptr %0, i64 2280
  %12 = load ptr, ptr %11, align 8, !tbaa !63
  %13 = load ptr, ptr %10, align 8, !tbaa !62
  %.not = icmp eq ptr %12, %13
  br i1 %.not, label %30, label %14

14:                                               ; preds = %9
  %15 = getelementptr inbounds nuw i8, ptr %0, i64 192
  %16 = getelementptr inbounds nuw i8, ptr %0, i64 2360
  %17 = load i32, ptr %16, align 8, !tbaa !64
  %18 = getelementptr inbounds nuw i8, ptr %0, i64 2320
  %19 = load i32, ptr %18, align 8, !tbaa !76
  %20 = tail call noundef zeroext i1 @_ZN3dpx6Writer12WriteElementEiPvNS_8DataSizeE(ptr noundef nonnull align 8 dereferenceable(2080) %15, i32 noundef %17, ptr noundef %13, i32 noundef %19)
  br i1 %20, label %29, label %21

21:                                               ; preds = %14
  %22 = tail call ptr @__errno_location() #28
  %23 = load i32, ptr %22, align 4, !tbaa !77
  %24 = tail call ptr @strerror(i32 noundef %23) #25
  call void @llvm.lifetime.start.p0(i64 8, ptr nonnull %2) #25
  %.not8 = icmp eq ptr %24, null
  br i1 %.not8, label %27, label %25

25:                                               ; preds = %21
  %26 = load i8, ptr %24, align 1, !tbaa !78
  %.not9 = icmp eq i8 %26, 0
  %spec.select = select i1 %.not9, ptr @.str.77, ptr %24
  br label %27

27:                                               ; preds = %25, %21
  %28 = phi ptr [ @.str.77, %21 ], [ %spec.select, %25 ]
  store ptr %28, ptr %2, align 8, !tbaa !79
  call void @_ZNK11OpenImageIO6v3_1_011ImageOutput8errorfmtIJPKcEEEvS4_DpRKT_(ptr noundef nonnull align 8 dereferenceable(184) %0, ptr noundef nonnull @.str.76, ptr noundef nonnull align 8 dereferenceable(8) %2)
  call void @llvm.lifetime.end.p0(i64 8, ptr nonnull %2) #25
  br label %29

29:                                               ; preds = %27, %14
  store i8 0, ptr %6, align 8, !tbaa !68
  br label %30

30:                                               ; preds = %5, %9, %29, %1
  %.0 = phi i1 [ false, %1 ], [ %20, %29 ], [ true, %9 ], [ true, %5 ]
  ret i1 %.0
}